target datalayout = "e-m:e-p270:32:32-p271:32:32-p272:64:64-i64:64-i128:128-f80:128-n8:16:32:64-S128"
target triple = "x86_64-pc-linux-gnu"

%struct.RBasic = type { i64, i64 }

; Function Attrs: inlinehint nounwind sspstrong uwtable
define internal void @set_shape_id_in_flags(i64 noundef %0, i32 noundef %1) #6 {
  %3 = alloca i64, align 8
  %4 = alloca i32, align 4
  store i64 %0, ptr %3, align 8, !tbaa !14
  store i32 %1, ptr %4, align 4, !tbaa !51
  %5 = load i64, ptr %3, align 8, !tbaa !14
  %6 = inttoptr i64 %5 to ptr
  %7 = getelementptr inbounds nuw %struct.RBasic, ptr %6, i32 0, i32 0
  %8 = load i64, ptr %7, align 8, !tbaa !102
  %9 = and i64 %8, 4294967295
  store i64 %9, ptr %7, align 8, !tbaa !102
  %10 = load i32, ptr %4, align 4, !tbaa !51
  %11 = zext i32 %10 to i64
  %12 = shl i64 %11, 32
  %13 = load i64, ptr %3, align 8, !tbaa !14
  %14 = inttoptr i64 %13 to ptr
  %15 = getelementptr inbounds nuw %struct.RBasic, ptr %14, i32 0, i32 0
  %16 = load i64, ptr %15, align 8, !tbaa !102
  %17 = or i64 %16, %12
  store i64 %17, ptr %15, align 8, !tbaa !102
  ret void
}

; Function Attrs: inlinehint nounwind sspstrong uwtable
define internal void @RBASIC_SET_SHAPE_ID(i64 noundef %0, i32 noundef %1) #6 {
  %3 = alloca i64, align 8
  %4 = alloca i32, align 4
  store i64 %0, ptr %3, align 8, !tbaa !14
  store i32 %1, ptr %4, align 4, !tbaa !51
  %5 = load i64, ptr %3, align 8, !tbaa !14
  %6 = load i32, ptr %4, align 4, !tbaa !51
  call void @set_shape_id_in_flags(i64 noundef %5, i32 noundef %6)
  ret void
}

; Function Attrs: nounwind sspstrong uwtable
define hidden zeroext i1 @rb_shape_set_shape_id(i64 noundef %0, i32 noundef %1) #0 {
  %3 = alloca i1, align 1
  %4 = alloca i64, align 8
  %5 = alloca i32, align 4
  store i64 %0, ptr %4, align 8, !tbaa !14
  store i32 %1, ptr %5, align 4, !tbaa !51
  %6 = load i64, ptr %4, align 8, !tbaa !14
  %7 = call i32 @rb_shape_get_shape_id(i64 noundef %6)
  %8 = load i32, ptr %5, align 4, !tbaa !51
  %9 = icmp eq i32 %7, %8
  br i1 %9, label %10, label %11

10:                                               ; preds = %2
  store i1 false, ptr %3, align 1
  br label %14

11:                                               ; preds = %2
  %12 = load i64, ptr %4, align 8, !tbaa !14
  %13 = load i32, ptr %5, align 4, !tbaa !51
  call void @RBASIC_SET_SHAPE_ID(i64 noundef %12, i32 noundef %13)
  store i1 true, ptr %3, align 1
  br label %14

14:                                               ; preds = %11, %10
  %15 = load i1, ptr %3, align 1
  ret i1 %15
}