; Function Attrs: nounwind sspstrong uwtable
define hidden noundef zeroext i1 @rb_shape_set_shape_id(i64 noundef %0, i32 noundef %1) local_unnamed_addr #0 {
  %3 = tail call i32 @rb_shape_get_shape_id(i64 noundef %0) #27
  %4 = icmp ne i32 %3, %1
  br i1 %4, label %5, label %12

5:                                                ; preds = %2
  %6 = inttoptr i64 %0 to ptr
  %7 = load i64, ptr %6, align 8, !tbaa !28
  %8 = and i64 %7, 4294967295
  %9 = zext i32 %1 to i64
  %10 = shl nuw i64 %9, 32
  %11 = or disjoint i64 %8, %10
  store i64 %11, ptr %6, align 8, !tbaa !28
  br label %12

12:                                               ; preds = %2, %5
  ret i1 %4
}